ccopy_reg
_reconstructor
p0
(clightgbm.basic
Booster
p1
c__builtin__
object
p2
Ntp3
Rp4
(dp5
S'_Booster__is_predicted_cur_iter'
p6
(lp7
sS'_Booster__inner_predict_buffer'
p8
(lp9
sS'_Booster__attr'
p10
(dp11
sS'name_valid_sets'
p12
(lp13
S'valid_0'
p14
asS'best_iteration'
p15
I0
sS'_Booster__init_predictor'
p16
NsS'best_score'
p17
ccollections
defaultdict
p18
(c__builtin__
dict
p19
tp20
Rp21
g14
(dp22
Vauc
p23
cnumpy.core.multiarray
scalar
p24
(cnumpy
dtype
p25
(S'f8'
p26
I0
I1
tp27
Rp28
(I3
S'<'
p29
NNNI-1
I-1
I0
tp30
bS'\xe2\x96O\t\xc8R\xee?'
p31
tp32
Rp33
sVl2
p34
g24
(g28
S'\xd4\xd9\xb05zt\xa9?'
p35
tp36
Rp37
sssS'handle'
p38
Vtree\u000anum_class=1\u000anum_tree_per_iteration=1\u000alabel_index=0\u000amax_feature_idx=127\u000aobjective=binary sigmoid:1\u000afeature_names=Column_0 Column_1 Column_2 Column_3 Column_4 Column_5 Column_6 Column_7 Column_8 Column_9 Column_10 Column_11 Column_12 Column_13 Column_14 Column_15 Column_16 Column_17 Column_18 Column_19 Column_20 Column_21 Column_22 Column_23 Column_24 Column_25 Column_26 Column_27 Column_28 Column_29 Column_30 Column_31 Column_32 Column_33 Column_34 Column_35 Column_36 Column_37 Column_38 Column_39 Column_40 Column_41 Column_42 Column_43 Column_44 Column_45 Column_46 Column_47 Column_48 Column_49 Column_50 Column_51 Column_52 Column_53 Column_54 Column_55 Column_56 Column_57 Column_58 Column_59 Column_60 Column_61 Column_62 Column_63 Column_64 Column_65 Column_66 Column_67 Column_68 Column_69 Column_70 Column_71 Column_72 Column_73 Column_74 Column_75 Column_76 Column_77 Column_78 Column_79 Column_80 Column_81 Column_82 Column_83 Column_84 Column_85 Column_86 Column_87 Column_88 Column_89 Column_90 Column_91 Column_92 Column_93 Column_94 Column_95 Column_96 Column_97 Column_98 Column_99 Column_100 Column_101 Column_102 Column_103 Column_104 Column_105 Column_106 Column_107 Column_108 Column_109 Column_110 Column_111 Column_112 Column_113 Column_114 Column_115 Column_116 Column_117 Column_118 Column_119 Column_120 Column_121 Column_122 Column_123 Column_124 Column_125 Column_126 Column_127\u000afeature_infos=[-0.97081200000000012:2.31819] [-2.7968099999999998:1.3283200000000002] [-0.86821700000000002:1.8162900000000002] [-1.6919400000000002:1.5322499999999999] [-1.34121:1.4085799999999999] [-0.926033:1.37303] [-1.7080000000000002:1.2682500000000001] [-1.1685099999999999:1.0126500000000001] [-1.3347500000000001:1.3649799999999999] [-0.88942500000000002:1.2467700000000002] [-1.2014200000000002:1.9057400000000002] [-1.4748600000000001:1.15151] [-1.6314299999999999:0.87970400000000004] [-1.54556:0.95662499999999995] [-1.54176:0.92515100000000006] [-1.6852200000000002:1.2375] [-0.91729799999999995:1.5682] [-1.35832:1.2023600000000001] [-0.96943799999999991:1.9010200000000002] [-1.4214:1.3523700000000001] [-1.4556899999999999:1.16974] [-2.2587799999999998:0.96795300000000006] [-1.0904399999999999:1.4899] [-0.97468500000000002:1.37751] [-1.3542399999999999:0.99788299999999996] [-0.88933799999999996:2.8302900000000002] [-1.4056200000000001:1.3036099999999999] [-1.06864:1.28501] [-1.3385499999999999:1.1861600000000001] [-1.0310700000000002:1.7161799999999998] [-1.55881:1.5389600000000001] [-2.1501399999999999:0.95326100000000002] [-2.1623099999999997:1.1532200000000001] [-0.90847800000000012:2.4140599999999997] [-1.20668:1.5720299999999998] [-1.5831600000000001:1.08256] [-1.35484:1.20682] [-1.5426500000000001:1.25081] [-1.24455:1.19987] [-0.88783500000000004:2.78071] [-1.2770900000000001:1.32941] [-1.1085200000000002:1.2380899999999999] [-1.89883:1.30921] [-0.82825199999999999:1.7613599999999998] [-1.34283:1.44249] [-1.2180299999999999:1.3518600000000001] [-1.38395:1.7888200000000001] [-1.3159799999999999:1.96228] [-1.57467:1.29003] [-1.0466:1.52542] [-1.7559200000000001:1.2758100000000001] [-1.8592299999999999:0.66944099999999995] [-1.2557399999999999:1.2449299999999999] [-2.1248200000000002:0.82704899999999992] [-1.0742100000000001:1.08954] [-1.6828700000000001:0.97740300000000002] [-0.78181499999999993:1.68927] [-0.88116700000000003:1.3258700000000001] [-1.92134:1.0228700000000002] [-1.9624900000000001:0.96327099999999988] [-1.48339:1.3826499999999999] [-1.3243400000000001:1.3170299999999999] [-1.66737:1.19282] [-1.5518700000000001:1.1926099999999999] [-1.6471499999999999:1.4281200000000001] [-2.0952599999999997:1.0228200000000001] [-0.86777700000000002:2.2567699999999999] [-1.3150500000000001:1.57667] [-1.1622399999999999:1.8551799999999998] [-1.2623599999999999:1.1225799999999999] [-1.02308:1.3828799999999999] [-2.4704299999999999:1.13032] [-1.4354499999999999:1.8773500000000001] [-1.50254:1.07504] [-1.1108499999999999:1.38121] [-2.53071:0.76439099999999993] [-1.4172899999999999:1.3767499999999999] [-2.5501800000000001:1.2999499999999999] [-1.0683499999999999:1.5742700000000001] [-1.56823:1.25183] [-1.3715200000000001:1.9311799999999999] [-0.95370499999999991:2.9615099999999996] [-1.7769999999999999:1.36687] [-1.45658:1.03206] [-1.36226:1.1639899999999999] [-2.1815500000000001:0.85767000000000004] [-1.21357:1.62616] [-1.7921099999999999:1.5824200000000002] [-1.39025:1.2452000000000001] [-2.1341099999999997:1.0177399999999999] [-0.99245099999999997:1.44567] [-1.2653399999999999:1.5961799999999999] [-1.3212700000000002:1.44085] [-1.8683900000000002:1.0794600000000001] [-1.3942399999999999:1.2562899999999999] [-1.5359700000000001:2.2707000000000002] [-1.6628400000000001:1.11012] [-1.3347799999999999:1.3249] [-1.4549299999999998:1.4141700000000001] [-1.34965:1.6974599999999997] [-2.9258299999999999:1.2576399999999999] [-1.2966799999999998:1.81077] [-1.1924399999999999:1.17852] [-1.49539:1.3222799999999999] [-0.97797299999999998:1.8723299999999998] [-1.38202:1.1598700000000002] [-1.2380799999999998:1.30463] [-1.7355400000000001:1.00637] [-1.0939700000000001:1.95061] [-1.14849:1.371] [-2.7689499999999998:0.69660900000000003] [-1.1376600000000001:2.0537700000000001] [-0.774586:2.1799599999999999] [-1.5455000000000001:1.3955500000000001] [-0.99505400000000011:1.3162100000000001] [-1.0912200000000001:1.4592000000000001] [-0.7365520000000001:2.1113900000000001] [-1.12859:1.9893099999999999] [-1.60459:1.33213] [-1.75712:1.1364700000000001] [-0.89521299999999993:1.7347999999999999] [-1.1758999999999999:1.6588900000000002] [-1.0876399999999999:1.6840000000000002] [-1.40438:1.06809] [-1.5856600000000001:1.0235799999999999] [-1.67763:1.8613400000000002] [-1.4285099999999999:1.3637999999999999] [-1.0874700000000002:1.22705]\u000a\u000aTree=0\u000anum_leaves=31\u000anum_cat=0\u000asplit_feature=81 118 3 35 20 86 60 20 60 81 118 110 60 118 109 93 100 60 20 32 20 79 20 80 99 60 109 35 32 119\u000asplit_gain=9562.400768391788 2430.2837646039029 1308.4230453563505 1032.0810071857443 713.27643986552721 644.48407516924726 451.78752979773753 352.43417679944815 314.43966157527825 227.85023795679444 199.26463016309236 183.74594798825365 174.39765806900891 168.47022918168841 162.26265905527097 158.4996160434757 121.47179888955634 117.40418227946566 116.93761756970144 96.844719391876879 96.12379339284962 94.719759632378953 88.519966024997757 81.353802273826773 81.127581414631933 78.979113962603378 76.192095724738181 74.133092803579586 72.25332542317949 71.120089786756452\u000athreshold=0.78219550000000004 -0.52645050000000004 -0.64345600000000003 0.055580599999999994 0.53373300000000001 0.29833149999999997 0.2815435 -0.10054450000000001 0.27332600000000001 0.47144149999999996 -0.69302949999999996 -0.023768899999999999 0.29975249999999998 -0.37814500000000001 0.35834500000000002 -0.0143643 -0.63637549999999998 0.1172415 0.217367 -0.56724400000000008 0.1996705 0.42598200000000003 -0.091243249999999998 0.24913849999999998 0.17221500000000001 0.00086668500000000007 0.37414550000000002 0.25429550000000001 -0.0044125499999999995 -0.49206150000000004\u000adecision_type=2 2 2 2 2 2 2 2 2 2 2 2 2 2 2 2 2 2 2 2 2 2 2 2 2 2 2 2 2 2\u000aleft_child=2 3 5 8 9 19 11 21 18 20 -6 22 24 17 27 29 -10 -11 -2 -1 -4 -8 -3 -12 -5 -24 -27 -7 -16 -9\u000aright_child=1 6 4 12 10 14 7 15 16 13 23 -13 -14 -15 28 -17 -18 -19 -20 -21 -22 -23 25 -25 -26 26 -28 -29 -30 -31\u000aleaf_value=-0.022184300341296929 -0.069934640522875818 -0.091432791728212712 -0.098857335234474028 0.043767313019390582 0.002967359050445104 -0.053574744661095644 -0.082195121951219516 0.015151515151515152 -0.025440806045340054 -0.08109452736318408 -0.072393538913362698 -0.031666666666666669 0.073781388478581983 -0.090891706211488066 0.014509803921568629 0.033333333333333333 0.03948620361560419 -0.038967971530249113 -0.021388101983002835 -0.08158744808491003 -0.091574141330289516 -0.0041666666666666666 -0.078381147540983617 -0.019346049046321527 -0.017532467532467535 -0.063020329138431752 -0.014346895074946468 0.0067729083665338643 -0.053672316384180796 -0.044781144781144783\u000aleaf_count=293 765 2031 302976 722 674 1077 820 297 397 1608 1362 1200 2708 14119 1275 990 1051 1124 1412 4334 19274 192 1952 367 308 1033 467 251 177 594\u000ainternal_value=0 -0.39211287561249186 -1.9308476946843178 0.47181855222056229 -1.9488849325337332 -1.0992304576751721 -1.0563909774436091 -0.39612858624265468 -0.28855172413793101 -1.9565793082297014 -0.86308780690803166 -1.3422115816250186 1.2092027822364901 -1.72986766364014 -0.33812949640287771 0.11589580010632643 0.43370165745856354 -1.2752562225475841 -0.76894809370693618 -1.5565161011454507 -1.9684344453064391 -1.3478260869565217 -1.497355462338136 -1.2226720647773279 0.50873786407766985 -1.302433371958285 -0.95733333333333337 -0.84337349397590367 0.12396694214876033 -0.49607182940516276\u000ainternal_count=365850 16939 348911 7363 341504 7407 9576 2893 3625 339101 2403 6683 3738 16851 2780 1881 1448 2732 2177 4627 322250 1012 5483 1729 1030 3452 1500 1328 1452 891\u000ashrinkage=0.05\u000a\u000a\u000aTree=1\u000anum_leaves=31\u000anum_cat=0\u000asplit_feature=81 118 3 35 20 86 3 49 60 81 118 60 109 118 109 60 20 20 56 32 20 99 60 80 95 109 35 35 35 78\u000asplit_gain=8668.969935500354 2198.8737000387728 1189.2070139324642 989.2681793434765 648.07442743395222 583.4321290280443 379.56003842411246 382.15654838799384 296.33348222296149 208.77594303147634 180.15140976742282 173.45066646943565 146.54509524383548 145.78988014763127 121.46321466059496 121.37843933014938 113.65685339157687 110.26354975383492 100.8360007009604 88.99855246582365 84.611410138721112 81.202280943646585 78.520801230632173 73.658296965287377 71.141006729085959 70.448538055762171 67.111248860324153 66.982364265056503 66.392446637038972 66.201362385536797\u000athreshold=0.78219550000000004 -0.5013725 -0.64345600000000003 0.055580599999999994 0.53373300000000001 0.29833149999999997 -0.64345600000000003 -0.248392 0.24354000000000001 0.44749149999999999 -0.69302949999999996 0.34924200000000005 0.35834500000000002 -0.37814500000000001 0.31999750000000005 0.3359415 0.1996705 -0.091243249999999998 0.60432449999999993 -0.43018049999999997 0.20783299999999999 -0.0088562550000000004 0.023067999999999998 0.24913849999999998 0.034771349999999999 0.65204149999999994 0.035709699999999997 0.25429550000000001 -0.10070750000000001 0.061431300000000001\u000adecision_type=2 2 2 2 2 2 2 2 2 2 2 2 2 2 2 2 2 2 2 2 2 2 2 2 2 2 2 2 2 2\u000aleft_child=2 3 5 8 9 19 7 14 16 20 -6 21 27 15 -3 -11 -2 -8 25 -1 -4 -5 -19 -12 -14 -10 -16 -7 -24 -25\u000aright_child=1 6 4 11 10 12 17 -9 18 13 23 -13 24 -15 26 -17 -18 22 -20 -21 -22 -23 28 29 -26 -27 -28 -29 -30 -31\u000aleaf_value=-0.039884787690942426 -0.068525195216437365 -0.041965894833418463 -0.094177398695765857 0.046860890629948727 0.0028189973856077 -0.050933178798230144 -0.088616281992754495 -0.05089230073704544 0.010737194472397913 -0.071234874054776881 -0.068865589226751886 0.071593507949435128 0.025844625491726315 -0.086929262807291685 0.0063087766651660623 -0.01380121594941691 -0.021589455634179897 -0.074117312292456744 -0.040521791224830551 -0.0796908018429488 -0.087006218800799034 -0.0052661953544646967 -0.063927309651343051 0.03129278302144553 -0.018666391013184038 0.057597242647041962 0.055913027979221257 0.0064343354339840009 -0.014882458997965003 -0.054698224522328046\u000aleaf_count=655 806 338 301725 755 674 1077 2147 3214 849 2714 1362 2589 801 16795 675 426 1437 1300 251 3972 17441 495 520 155 651 516 458 251 589 212\u000ainternal_value=0 -0.37287483977870278 -1.8387117893157814 0.41687446668923883 -1.8559389449358672 -1.0454563440709581 -1.0309844883831318 -0.63116721196094261 -0.2982879205555074 -1.8632879847283612 -0.82057247395895616 1.1361985474271483 -0.32134077763136271 -1.6645268972966907 0.21333052370476513 -1.268742043040634 -0.76887075891185708 -1.4423644708631196 0.35473995596802704 -1.481050208540889 -1.875707957333268 0.52430854165543284 -1.1485600785584458 -1.1627856123577907 0.11778306417606084 0.56902459130902927 0.52726494936741086 -0.80168326332985473 -0.75757147816479986 -0.36760993081250615\u000ainternal_count=365850 16939 348911 7698 341504 7407 9241 4685 3859 339101 2403 3839 2780 19935 1471 3140 2243 4556 1616 4627 319166 1250 2409 1729 1452 1365 1133 1328 1109 367\u000ashrinkage=0.05\u000a\u000a\u000aTree=2\u000anum_leaves=31\u000anum_cat=0\u000asplit_feature=81 118 20 35 3 120 86 118 60 49 49 83 20 81 97 100 118 60 3 20 109 45 68 119 60 100 32 81 86 21\u000asplit_gain=7926.4605319472612 1990.3493438994865 1102.6393782480736 895.71062733172403 524.26516276039183 374.82454978413989 373.57535131997111 365.08890474520058 267.86338491367803 230.25147484784065 159.08225883638397 156.13412692751081 147.43332173315048 131.66274645202793 128.78452275586173 110.71893200192017 105.54002707017207 146.04050825288869 105.257670855909 103.391400247295 99.55444581777283 84.762600227993801 84.337055733385114 91.317305053673692 82.655854942191439 81.737908101989206 75.169561448775141 71.346996991427659 69.750944338244381 66.205025248508719\u000athreshold=0.78219550000000004 -0.5013725 0.411105 0.055580599999999994 -0.58207399999999998 0.574434 0.42629150000000005 -0.69302949999999996 0.24354000000000001 -0.42188949999999997 -0.20909549999999999 -0.567855 0.45884749999999996 0.3984605 0.047678650000000003 -0.63637549999999998 -0.20467000000000002 0.097076450000000009 -0.64345600000000003 0.1996705 0.46472849999999999 -0.11009150000000001 0.030680950000000002 -0.33498349999999999 0.2815435 -0.113177 -0.20732349999999999 0.407474 0.20655000000000001 -0.11564200000000001\u000adecision_type=2 2 2 2 2 2 2 2 2 2 2 2 2 2 2 2 2 2 2 2 2 2 2 2 2 2 2 2 2 2\u000aleft_child=2 3 4 8 6 12 20 14 19 18 -5 -9 29 -6 -4 -10 17 -15 -7 -2 -1 24 23 -19 -11 -12 -8 -13 -29 -3\u000aright_child=1 5 7 10 13 9 26 11 15 21 25 27 -14 16 -16 -17 -18 22 -20 -21 -22 -23 -24 -25 -26 -27 -28 28 -30 -31\u000aleaf_value=-0.077011958019074372 -0.065338150747797349 -0.086330170969143527 -0.032638200456257614 0.07166583532190883 -0.089934152634730785 0.034914964684948653 0.0025340475216990409 -0.011528853802145831 -0.026825585357690158 -0.045692242721955351 0.0081747107740341978 -0.074712082147193035 -0.023804077327168396 -0.083104336714317856 0.029352444106288324 0.032560743267654443 -0.087042362277854265 -0.013783769632340209 -0.068752948376565357 -0.020517735219711009 -0.033514551196429987 -0.073315328154838794 -0.079753579007613304 -0.058849138161928161 -0.0038608077763535816 0.053035006150394359 -0.048023694028823553 -0.06857973277093142 -0.032558591242359568 -0.062307372822887022\u000aleaf_count=5672 806 1764 692 2209 308504 764 880 596 427 1143 822 3332 778 5529 652 1189 16804 670 113 1437 583 537 996 1393 808 808 443 1129 1036 3334\u000ainternal_value=0 -0.35513423839162167 -1.758647306111232 0.39687712951867282 -1.775348807941209 -0.98226478759743985 -1.2537475951136288 -0.99495159785333054 -0.28372405921174287 -0.44948849528379548 1.0826480699418051 -1.2039912624088964 -1.2879825992626561 -1.7872297298881838 -0.050950510020554556 0.33724134961754887 -1.6482503300175719 -1.4672620225608619 0.43223816729435927 -0.73158162515366032 -1.4590079946086469 -0.76072126911464111 -1.1155758872658286 -0.88409538147097 -0.56700623388248295 0.60807272724419315 -0.28774005412922332 -1.3098861247059155 -1.0265888311673748 -1.4121722121418432\u000ainternal_count=365850 16939 348911 7698 341474 9241 7578 7437 3859 3365 3839 6093 5876 333896 1344 1616 25392 8588 877 2243 6255 2488 3059 2063 1951 1630 1323 5497 2165 5098\u000ashrinkage=0.05\u000a\u000a\u000aTree=3\u000anum_leaves=31\u000anum_cat=0\u000asplit_feature=81 60 20 20 20 3 109 86 56 79 20 109 126 16 20 52 31 60 109 81 103 55 60 63 18 45 57 100 63 38\u000asplit_gain=7307.8458488872857 2106.3072478671406 827.26620221073972 767.89238164580013 579.62782726017849 454.08912316846545 409.15428495906224 317.50055056127894 202.64621038668344 180.95119136056388 172.20785748723392 219.31052157763907 163.3771286757015 160.55248714898892 140.52876395217027 126.08911265879269 120.54622932167725 118.28050266387524 101.94751443804989 95.937240753552032 85.189531133702332 83.272870215892837 78.518738438717719 71.624128952523961 64.939886798377756 63.992398809111009 63.129373809206157 61.903865753098216 128.81240185552483 60.326241198427738\u000athreshold=0.70217850000000004 0.2815435 0.53373300000000001 -0.25887550000000004 0.53373300000000001 -0.58207399999999998 0.65204149999999994 0.42629150000000005 0.202129 0.42598200000000003 -0.064620750000000005 0.37414550000000002 -0.320017 -0.13746249999999999 0.120062 0.12793599999999999 -0.38949699999999998 -0.096114649999999996 0.46472849999999999 0.48632000000000003 0.04173255 -0.119528 0.082272349999999994 0.095917650000000007 0.63975249999999995 0.158665 -0.42456149999999998 0.4386525 0.19486249999999999 -0.35335949999999999\u000adecision_type=2 2 2 2 2 2 2 2 2 2 2 2 2 2 2 2 2 2 2 2 2 2 2 2 2 2 2 2 2 2\u000aleft_child=2 4 5 9 10 7 8 18 15 -3 -2 -12 -6 16 -7 -5 -4 -13 -1 27 -14 -19 -21 -8 -15 -9 -10 -16 -29 -17\u000aright_child=1 3 13 6 12 14 23 25 26 -11 11 17 20 24 19 29 -18 21 -20 22 -22 -23 -24 -25 -26 -27 -28 28 -30 -31\u000aleaf_value=-0.07439969751917723 -0.077219135014324952 -0.07110834707236037 0.019052763000914956 -0.015252604940237703 -0.039688620247425345 -0.086529507635812741 0.02906789924997908 -0.0069995533412224187 0.024671278452928568 0.021948727698687429 -0.061729285916472434 -0.06094347273870352 0.036663070687345249 -0.063139388268783611 -0.082056969521370135 0.050395263719449579 -0.040771145798762759 -0.026909196593816121 -0.02854880857021368 -0.076079840057547504 -0.0092177370978351759 0.024021510375468721 -0.04478365622012076 0.069083753783294288 -0.014400821996031616 -0.070133790937761384 -0.033931147477165885 -0.075358872705163088 0.079791134536593603 0.01359821259327606\u000aleaf_count=5509 3606 1053 759 572 924 294230 564 1129 226 263 4419 520 789 1393 37115 1340 611 728 536 2134 836 579 1313 2215 342 188 1004 207 74 672\u000ainternal_value=0 -0.45502119654645967 -1.6947504969063418 0.35384330327288166 -0.97194777799954324 -1.7042226353269398 0.63260090723753848 -1.2101152001768964 0.20656054856923883 -1.0486564130695959 -1.1936276198735154 -0.992256363666847 -0.12119130849332393 -0.66401006616872049 -1.7151683610577499 0.52553041159423719 -0.15136188586569144 -0.40795564371780774 -1.4061361578108331 -1.6042327574991631 0.26117018172514961 -0.086717860835529764 -1.2826617612745281 1.218734907410161 -1.0699144526201527 -0.3199730642535274 -0.46302767021155344 -1.6339916484039381 -0.69016221901216823 0.76174578705682661\u000ainternal_count=365850 20310 345540 7909 12401 342435 6593 7362 3814 1316 9852 6246 2549 3105 335073 2584 1370 1827 6045 40843 1625 1307 3447 2779 1735 1317 1230 37396 281 2012\u000ashrinkage=0.05\u000a\u000a\u000aTree=4\u000anum_leaves=31\u000anum_cat=0\u000asplit_feature=81 118 20 35 3 120 16 86 109 60 60 60 93 20 81 71 18 118 60 100 109 56 21 110 16 60 35 15 20 106\u000asplit_gain=6790.6032508828212 1693.3961886796906 974.27261096666916 722.55388874381867 461.85975379715092 338.51404913746342 333.08530506705802 316.77553519652702 225.02203508120212 191.13301797850886 178.96983878581636 160.05903840553003 145.70916416005181 129.08798425406098 123.39082040314679 117.85322610696133 103.23123798133088 94.027982757561404 131.89427610637404 92.883815172746324 83.877565690125721 83.057632764545986 79.111545435023856 78.003814863822967 71.222819560260632 77.509089737733007 76.526151923362079 70.403374140346642 70.237160248540533 61.966109207972181\u000athreshold=0.78219550000000004 -0.52645050000000004 0.411105 0.0057667499999999993 -0.58207399999999998 0.574434 -0.1905905 0.42629150000000005 0.31999750000000005 0.25815250000000001 0.15915400000000002 0.34924200000000005 -0.026838799999999996 0.45884749999999996 0.44749149999999999 -0.3066625 0.77535949999999998 -0.21232200000000001 0.1172415 -0.3826755 0.46472849999999999 0.11671049999999999 -0.34560649999999998 -0.14345249999999998 0.021523199999999999 -0.063025049999999999 0.2952745 -0.30093550000000002 0.18503600000000001 -0.1202855\u000adecision_type=2 2 2 2 2 2 2 2 2 2 2 2 2 2 2 2 2 2 2 2 2 2 2 2 2 2 2 2 2 2\u000aleft_child=2 3 4 10 7 13 9 20 29 15 28 23 -10 24 -6 -4 -8 18 -16 -12 -1 -20 -14 -5 25 -3 -27 -9 -2 -7\u000aright_child=1 5 6 11 14 8 16 27 12 -11 19 -13 22 -15 17 -17 -18 -19 21 -21 -22 -23 -24 -25 -26 26 -28 -29 -30 -31\u000aleaf_value=-0.070841543432983475 -0.064748007984537323 -0.073112500107969436 0.020276368344322705 -0.0018232062949134127 -0.083157875682367863 -0.017852835407206304 -0.063783545766070787 -0.057482387024315698 -0.026383979559464033 0.0300608953274225 -0.017601308140194102 0.063417116757041148 -0.05440728220550467 -0.021750714185973727 -0.074933245537495752 -0.047476522725979214 -0.013730500429560602 -0.079773098099822498 -0.021745121748359263 0.030776077286800482 -0.030805439486336253 -0.062465415202313558 0.038610094811408355 0.046808247930778299 -0.078826374086979165 -0.04583721636428132 0.050227392506107617 -0.0010081501016609392 -0.022085523581408629 -0.060223448861779411\u000aleaf_count=5672 592 1348 329 712 315516 508 4732 282 861 709 702 2664 103 829 4109 1212 455 12220 951 922 583 1100 934 620 2093 1705 88 1041 1151 1107\u000ainternal_value=0 -0.32146137830631266 -1.6263592108789411 0.40244021621488318 -1.6423488642100157 -0.88032714216394603 -0.90460338428786491 -1.1495159610962526 -0.38496090489112234 -0.25943840204452973 -0.28124266288773769 0.98198152050928866 0.083025568096466773 -1.1696262687148922 -1.6536957200244164 -0.65833004636519488 -1.1867670235851731 -1.492163112581842 -1.2884022000821909 0.19709035664063285 -1.3411799626429428 -0.87100420721460114 0.5892055321531563 0.41566243679735188 -1.2874635508763772 -1.095733274607535 -0.82202394668538892 -0.26034337652551398 -0.72845562051251223 -0.93707131519105258\u000ainternal_count=365850 16939 348911 7363 341474 9576 7437 7578 3513 2250 3367 3996 1898 6063 333896 1541 5187 18380 6160 1624 6255 2051 1037 1332 5234 3141 1793 1323 1743 1615\u000ashrinkage=0.05\u000a\u000a\u000aTree=5\u000anum_leaves=31\u000anum_cat=0\u000asplit_feature=81 118 3 35 86 3 109 68 118 109 123 93 49 106 29 118 77 50 119 100 49 38 100 118 32 3 110 110 66 45\u000asplit_gain=6285.0661444522557 1974.7526256085318 692.41512614823296 676.85907648551415 421.8326372161614 375.05610308321002 404.17982727986941 254.09354445987265 229.58220173110203 200.73723207875264 141.07260500354744 140.06937428126571 116.82013544366256 114.26873145476905 111.55365281055538 108.60526623096857 89.680669759489774 80.995214368675079 80.748442921215243 78.820869352218779 76.569667580449135 74.461616554306602 89.616500061199361 74.134263394138543 70.443782788897806 70.869562593006776 67.364890167997544 66.994557994940806 64.768684909860781 63.147141393601778\u000athreshold=0.70217850000000004 -0.52645050000000004 -0.58207399999999998 -0.074938399999999988 0.32822700000000005 -0.53950150000000008 0.50274449999999993 -0.19200400000000001 -0.35918349999999999 0.46472849999999999 -0.35018649999999996 -0.02270525 -0.23647950000000001 0.10399750000000001 0.020550100000000002 -0.52645050000000004 -0.0286859 0.092888499999999999 -0.594163 -0.74367249999999996 -0.16704150000000001 -0.23510350000000002 -0.040189299999999997 -0.16980849999999997 -0.087849199999999988 -0.30001149999999999 -0.40458349999999998 -0.083104749999999991 -0.13484449999999998 -0.25148250000000005\u000adecision_type=2 2 2 2 2 2 2 2 2 2 2 2 2 2 2 2 2 2 2 2 2 2 2 2 2 2 2 2 2 2\u000aleft_child=2 3 4 12 21 6 14 8 10 13 18 -8 -2 -5 29 -6 -7 -16 -4 -11 -17 22 -1 24 25 -9 -14 -20 -12 -3\u000aright_child=1 5 7 9 15 16 11 23 -10 19 28 -13 26 -15 17 20 -18 -19 27 -21 -22 -23 -24 -25 -26 -27 -28 -29 -30 -31\u000aleaf_value=-0.057166933356728449 0.017596160216239557 0.018588551613603264 0.036488338567644878 0.031291044901647053 0.013744543026294815 -0.078081664733284317 -0.023086391764404548 -0.059147088922748794 -0.073961998845621463 -0.00095939844563498874 -0.0040144676907562819 0.034371727523866906 -0.044657716255243396 -0.026227520653865112 -0.054458348596985263 -0.013841094344607327 -0.052368384217534737 -0.00093852273046473851 -0.061429842230376508 0.06463778119314266 -0.059231843606352058 -0.072449369739904124 0.0064091305181572513 -0.081062264250995025 -0.079947426015300846 -0.075093151896620067 -0.011151841592203345 -0.0010882048954857467 -0.061924699057688715 -0.051984279036766383\u000aleaf_count=1533 730 400 242 1483 849 2909 725 3349 17403 200 215 1046 1239 456 4053 1014 2698 308 373 2600 598 4116 268 252052 38055 22256 1186 386 2918 190\u000ainternal_value=0 -0.41691625298372409 -1.5760717141127207 0.36818228623137444 -1.0008461962480837 -0.9240665640729504 -0.60448880410773398 -1.5907047334420359 -1.375699275191667 0.8511424295040334 -0.94466219607810953 0.21802907074784986 -0.35183776216269042 0.35482950367174193 -0.9013775837403798 -0.304826587024076 -1.3135507593787537 -1.0130760919462236 -0.2831778035549668 1.1983137620493065 -0.61177696166444107 -1.2978336954019931 -0.95343299315651986 -1.6054366555923894 -1.5429737466245748 -1.4599776969439855 -0.56425870809571577 -0.61044118944117387 -1.1587098158017379 -0.080187951311111991\u000ainternal_count=365850 20223 345627 7894 8378 12329 6722 337249 21537 4739 4134 1771 3155 1939 4951 2461 5607 4361 1001 2800 1612 5917 1801 315712 63660 25605 2425 759 3133 590\u000ashrinkage=0.05\u000a\u000a\u000aTree=6\u000anum_leaves=31\u000anum_cat=0\u000asplit_feature=81 118 20 35 60 45 118 3 109 86 110 60 83 60 16 97 86 68 20 119 25 60 77 79 38 56 56 109 16 38\u000asplit_gain=5903.2089767399011 1801.7587527468431 796.90397334369482 591.65774452493088 386.21784785829686 361.27631922890862 352.08851161783286 226.77349178964505 216.92393001280487 189.25659593964974 160.68994724943195 160.46990510013018 151.25726671962138 146.36467527810731 101.40412251257476 97.683995656961201 89.598020782872538 88.987905652320478 87.427708858878816 81.950648028088835 76.420570079341815 75.674077425237613 71.093819858113648 106.41139192851398 96.263390620984666 71.058078191166146 68.248198562541759 63.455663122275688 62.151733468999794 56.523630174740447\u000athreshold=0.70217850000000004 -0.56166300000000002 0.34634949999999998 -0.074938399999999988 0.22384950000000003 -0.25148250000000005 -0.69302949999999996 -0.53950150000000008 0.33198099999999997 0.42629150000000005 0.02098945 0.25069949999999996 -0.567855 -0.1416405 -0.010188349999999999 -0.137265 0.42629150000000005 -0.13862249999999998 0.20783299999999999 -0.31253599999999998 0.27077950000000001 0.128332 -0.01232775 0.062876299999999996 -0.052859050000000005 0.38182050000000001 0.40851999999999999 0.46472849999999999 -0.1905905 -0.22119349999999999\u000adecision_type=2 2 2 2 2 2 2 2 2 2 2 2 2 2 2 2 2 2 2 2 2 2 2 2 2 2 2 2 2 2\u000aleft_child=2 3 7 13 10 8 15 9 -6 29 -3 28 27 -2 20 -4 -15 19 -7 22 -14 -22 -9 -24 -25 -13 -10 -8 -5 -1\u000aright_child=1 4 6 11 5 18 12 17 26 -11 -12 25 14 16 -16 -17 -18 -19 -20 -21 21 -23 23 24 -26 -27 -28 -29 -30 -31\u000aleaf_value=-0.0516323581014329 -0.050587600831556959 -0.061693629225189554 -0.038112868222246361 0.032435200634284442 -0.029467149521348102 -0.067659782544500793 -0.029396409875344549 -0.072561137143864321 0.036622627279609757 -0.019300965030862583 -0.02219485471516924 0.059523648883041097 -0.066306386461653433 -0.021349769029052727 -0.071179348400102871 0.020859510825790989 0.020898964082605401 -0.078164854662791383 -0.010332855950929143 -0.074487519180871806 -0.049970756518539862 -0.013734153211309051 -0.059255833747208879 0.02766659002832253 -0.060654259795825227 0.0079659920267493353 -0.022970521752912899 0.039337132345707571 -0.012836406382608335 -0.072225299656031028\u000aleaf_count=1971 861 7197 431 680 1161 1351 455 2147 1341 1002 1233 2952 1606 1053 3975 845 974 297388 338 25862 1855 882 1654 332 216 300 227 193 555 4813\u000ainternal_value=0 -0.3988537352698926 -1.5264046847981128 0.39457395404308987 -0.8597974908505539 -0.3768907695210858 -0.96557627291955261 -1.5440058394280463 0.073543307214330972 -1.1989396218240818 -1.1164506082608161 0.85597558436530641 -1.1107724315628986 -0.3137440810923533 -1.1862032714874391 0.02154662615775679 -0.020103921680804659 -1.552401898661171 -1.118563799169777 -1.4455155425976005 -0.97066471989255643 -0.76369402255791308 -1.1834219071292278 -0.92333926096035235 -0.13833222496659903 1.0942519014010395 0.55992300906838388 -0.17441989016556436 0.24164366691297112 -1.3241545968229744\u000ainternal_count=365850 20223 345627 7375 12848 4418 10242 335385 2729 7786 8430 4487 8966 2888 8318 1276 2027 327599 1689 30211 4343 2737 4349 2202 548 3252 1568 648 1235 6784\u000ashrinkage=0.05\u000a\u000a\u000aTree=7\u000anum_leaves=31\u000anum_cat=0\u000asplit_feature=81 118 20 60 118 120 100 3 13 86 35 109 109 60 16 38 97 68 20 119 110 77 60 38 0 118 66 60 83 16\u000asplit_gain=5568.9166200551845 1659.8911970525264 767.88424344130908 712.4489114394504 325.28995708361799 286.99231546187684 231.96424510506745 222.24102373459027 197.59149239512823 177.9696574545037 167.0930625439791 143.41342356302039 117.90973608997956 102.46566385954813 98.928450719572083 95.727044591684731 88.404028416154915 86.785156523052137 85.99725557088243 78.526957338644934 77.600362827800836 76.673807713350129 90.72060611873188 74.546559058911839 86.046810699062974 69.06977416068753 98.465205994938259 68.009058586221713 58.159583106139806 54.117539654278339\u000athreshold=0.70217850000000004 -0.44204949999999998 0.34634949999999998 0.20568900000000001 -0.69302949999999996 0.47921049999999998 -0.42637049999999999 -0.53950150000000008 0.1086075 0.42629150000000005 0.051407000000000008 0.50274449999999993 0.50274449999999993 0.22384950000000003 -0.010188349999999999 -0.50290699999999999 -0.137265 -0.13862249999999998 0.1996705 -0.31253599999999998 0.019541349999999999 -0.10803950000000001 0.45154050000000001 -0.094590950000000007 -0.21058750000000001 -0.29126000000000002 -0.13484449999999998 -0.07713239999999999 -0.26582850000000002 -0.32946200000000003\u000adecision_type=2 2 2 2 2 2 2 2 2 2 2 2 2 2 2 2 2 2 2 2 2 2 2 2 2 2 2 2 2 2\u000aleft_child=2 3 7 10 16 20 15 9 21 -1 18 14 -8 -10 23 -5 -4 19 -2 25 -3 -7 -23 24 27 26 -9 -6 -13 -12\u000aright_child=1 5 4 6 11 8 12 17 13 -11 29 28 -14 -15 -16 -17 -18 -19 -20 -21 -22 22 -24 -25 -26 -27 -28 -29 -30 -31\u000aleaf_value=-0.063921104533942452 -0.057876703119650499 -0.063708331714553118 -0.036382610121907182 0.025112597573954905 -0.060332393307947867 -0.058929066717832906 0.025733420446233543 0.042938230319843035 -0.025197007679988528 -0.018360609121449097 0.040114535328677557 0.027679774105824687 0.06144547055716057 0.026482613074154917 -0.068259916731842271 -0.027117510408105051 0.019798200224731433 -0.075926346177416018 -0.020890473536038491 -0.072244173078245447 -0.026726802513285748 -0.037768389221116562 0.030817480030855628 -0.061793404458308956 -0.048792796685511973 -0.06495617255534962 -0.047106783784638472 0.0051616159667201055 -0.050208097605612928 -0.0058817262472262936\u000aleaf_count=6784 1031 5914 431 767 218 1441 1509 146 738 1002 428 298 2549 831 4048 667 845 297388 1746 25862 648 1059 240 1858 1683 3219 984 712 149 655\u000ainternal_value=0 -0.38191694909830171 -1.4816590429424299 0.24059990789845603 -0.92809806596646804 -0.92726850566193564 0.71059530607833188 -1.4992064883783589 -0.52243516593360317 -1.1552730804473184 -0.42333503852639331 -1.0692861346478013 0.95984668201270595 0.046896323257589217 -1.1300651813066529 0.014434226419637961 0.020453474261385777 -1.5076395752730594 -0.68713418034974094 -1.4010584532313535 -1.199278489582974 -0.85379295901734775 -0.49721828232666837 -0.92022578666083343 -0.69731482027872604 -1.1425629972010005 -0.70351939480069636 -0.19983213524225976 0.046769896026276098 0.24599947460538499\u000ainternal_count=365850 20223 345627 9352 10242 10871 5492 335385 4309 7786 3860 8966 4058 1569 8519 1434 1276 327599 2777 30211 6562 2740 1299 4471 2613 4349 1130 930 447 1083\u000ashrinkage=0.05\u000a\u000a\u000aTree=8\u000anum_leaves=31\u000anum_cat=0\u000asplit_feature=81 118 20 60 118 120 3 100 13 86 35 36 109 16 109 20 38 97 38 20 20 119 45 51 80 77 60 44 0 100\u000asplit_gain=5274.1802846608916 1516.0552134349755 744.18833744819858 647.20141741804923 301.03558082631889 267.52012963138168 219.37424929422559 212.21135832793482 180.41861885970786 167.86920130804265 151.88404635591272 136.94583432210402 109.96192581391051 98.010395557941592 93.731517303090101 87.612821929069469 86.958731474802036 80.037279665598746 79.261061064273463 78.838505241290989 77.381952868682674 76.228845820685819 80.352612794454899 127.46429686893202 78.332934256664771 70.764219231437892 82.374763192772576 66.396886226842582 61.951567016400986 56.828698309832113\u000athreshold=0.70217850000000004 -0.44204949999999998 0.34634949999999998 0.20568900000000001 -0.69302949999999996 0.47921049999999998 -0.53950150000000008 -0.42637049999999999 0.1086075 0.42629150000000005 0.047751749999999996 0.363043 0.50274449999999993 -0.037823500000000003 0.34494750000000002 0.120062 -0.42097600000000002 -0.137265 -0.094590950000000007 0.1996705 0.45884749999999996 -0.25668049999999998 -0.039471199999999998 0.09761765 0.15438550000000001 -0.10803950000000001 0.45154050000000001 0.26766649999999997 -0.21058750000000001 0.15947800000000001\u000adecision_type=2 2 2 2 2 2 2 2 2 2 2 2 2 2 2 2 2 2 2 2 2 2 2 2 2 2 2 2 2 2\u000aleft_child=2 3 6 10 17 20 9 16 25 -1 19 13 -9 18 -10 -8 -5 -4 28 -2 -3 22 23 24 -17 -7 -27 -21 29 -6\u000aright_child=1 5 4 7 11 8 15 12 14 -11 -12 -13 -14 -15 -16 21 -18 -19 -20 27 -22 -23 -24 -25 -26 26 -28 -29 -30 -31\u000aleaf_value=-0.061795137566939377 -0.055626837110437068 -0.061638110900993817 -0.034746594650879106 0.021039515435434773 -0.019380085306043595 -0.056599195042972589 -0.073958403448458915 0.024496891974032407 -0.02466509545852083 -0.017467959280213764 0.011501246061905609 -0.0013706248182358185 0.059082671937806565 -0.065516809407950252 0.024884718685006569 -0.055684894835847258 -0.029666843666948935 0.018795573796834442 -0.060094949794669041 -0.031673997647839201 -0.025098831597434271 -0.070321845431163307 -0.06502001158651434 0.11649770361597933 0.0030839306175043189 -0.036125425284932948 0.029225561664014927 0.013176916205044006 -0.043463684914447992 0.05679294530586796\u000aleaf_count=6784 1029 5896 431 861 704 1441 292845 1509 723 1002 1093 526 2549 4446 846 1050 573 845 1705 1288 666 30010 3314 57 323 1059 240 450 1467 118\u000ainternal_value=0 -0.36597380341566027 -1.4411179503901528 0.22990638731412946 -0.89291925626632307 -0.89065761683302425 -1.4586889662332074 0.67954008871645633 -0.49931961122128138 -1.1144602141856523 -0.40405265648491751 -1.0304361568858023 0.91948562462391348 -1.0959157370676922 0.044619208943433512 -1.4672021539256277 0.013743700043127345 0.019420465925996319 -0.86238780134600124 -0.65830068466420644 -1.155766179117576 -1.3669749965060034 -1.1190473229311977 -0.70490256878437396 -0.83381137799255112 -0.81783193616882921 -0.47486414959626932 -0.40020877486673334 -0.6132151010982978 -0.16546502808379548\u000ainternal_count=365850 20223 345627 9352 10242 10871 335385 5492 4309 7786 3860 8966 4058 8440 1569 327599 1434 1276 3994 2767 6562 34754 4744 1430 1373 2740 1299 1738 2289 822\u000ashrinkage=0.05\u000a\u000a\u000aTree=9\u000anum_leaves=31\u000anum_cat=0\u000asplit_feature=81 118 60 20 3 118 89 100 81 35 21 3 86 77 60 109 38 100 100 16 35 20 44 44 44 49 25 110 20 100\u000asplit_gain=5021.5280730177183 1592.547910632047 638.62081740623489 617.75104517536238 300.92259689496359 268.78855551486231 226.89771745476338 203.49434306587079 163.25834203744307 143.02765676282041 127.4217691813019 127.22038619155774 122.24214927026355 103.1625959835128 126.54308974282242 94.4837418765552 94.29641403793525 89.19063939993157 80.519653668910706 78.406827072052693 75.076719004883884 72.327615676231972 68.290850843005018 65.034981930582973 63.201187087537576 59.737092624017109 58.630337203607496 57.69295510520972 54.042141597776208 67.660263619854959\u000athreshold=0.6568695 -0.44204949999999998 0.20568900000000001 0.32481499999999996 -0.64345600000000003 -0.69302949999999996 -0.53044599999999997 -0.32141750000000002 0.407474 0.043938400000000002 0.533833 -0.38299099999999997 0.23387649999999999 -0.081292699999999996 0.22384950000000003 0.50274449999999993 -0.42097600000000002 -0.207452 0.043426350000000002 -0.0018865900000000001 0.035709699999999997 0.18503600000000001 0.072345800000000002 0.18950050000000002 0.26766649999999997 -0.39480550000000003 0.36280500000000004 -0.030475050000000004 0.076372250000000003 0.4386525\u000adecision_type=2 2 2 2 2 2 2 2 2 2 2 2 2 2 2 2 2 2 2 2 2 2 2 2 2 2 2 2 2 2\u000aleft_child=3 2 9 8 6 18 20 16 28 21 19 12 -10 -6 -15 -9 -4 -8 -5 26 -3 -2 -19 -14 -23 -12 -7 -11 -1 -30\u000aright_child=1 4 7 5 13 10 17 15 11 27 25 -13 23 14 -16 -17 -18 22 -20 -21 -22 24 -24 -25 -26 -27 -28 -29 29 -31\u000aleaf_value=-0.072512724539026657 -0.053890045839544889 -0.009835111488806135 0.023299073535567229 -0.019381934622254932 -0.070838002872260289 -0.058325107362558762 -0.052379233561416438 0.025596419273649425 -0.057505877986317122 -0.0081988655880025161 0.008050279613881826 -0.067155572694570648 -0.043876170399607978 -0.054466571105463074 -0.0033455980152756921 0.058456644271236702 -0.023230942681290941 -0.039935878163643884 0.036685175275863596 -0.067379717126676578 0.036279512721862556 -0.031639322858630928 0.0097917401468216852 0.002580177479227363 0.010749169279104326 -0.037543663481474775 -0.03388847410468912 0.037576202567164513 -0.068923773199096455 -0.021144502299691649\u000aleaf_count=262505 1083 1161 1135 829 3652 2410 2352 1459 4210 738 411 16607 668 3395 605 2411 732 650 380 4323 522 1366 515 621 482 1088 1922 451 46833 334\u000ainternal_value=0 -0.40701883539676581 0.20410619317893808 -1.4081179071603824 -0.89227739816063401 -0.93006692130689173 -0.51717648794345061 0.64525682220944602 -1.4253914096058573 -0.40494845171161448 -1.0449490575998392 -1.2489886454563957 -0.97263762962552403 -1.1602867270017558 -0.92989833953440515 0.91526331699116603 0.098497550564683428 -0.81623439199384906 -0.033239664005038902 -1.144780010714288 0.09103354909542713 -0.64852972570879097 -0.35522478831211091 -0.4183520089075965 -0.40987946071230558 -0.49302932036429309 -0.94737493053888522 0.18316824492614373 -1.4382095998267641 -1.3715519131577985\u000ainternal_count=365850 22709 9857 343141 12852 11363 5200 5737 331778 4120 10154 22106 5499 7652 4000 3870 1867 3517 1209 8655 1683 2931 1165 1289 1848 1499 4332 1189 309672 47167\u000ashrinkage=0.05\u000a\u000a\u000aTree=10\u000anum_leaves=31\u000anum_cat=0\u000asplit_feature=3 109 118 68 99 35 52 123 80 86 56 118 3 66 60 100 118 100 60 50 112 45 60 52 63 71 16 35 80 110\u000asplit_gain=4797.4249445154273 1351.1422291970712 950.85069316712907 317.55770015218877 309.58492690526077 307.61624734343457 237.58109098534632 211.82755499696032 155.68773177714081 155.09140276923927 134.18444051683858 117.71205168715096 146.73339495098116 130.72383122256997 109.78490642789008 105.70007503336183 104.44779034836262 97.813190590486556 89.819542106420073 80.97729411923973 73.767937120016981 70.290645598736376 64.787501521987835 62.922531301288473 62.344143666954551 57.766948540013672 55.807197381281426 53.045613918741481 51.223412131209102 49.189207953875908\u000athreshold=-0.64345600000000003 0.50274449999999993 -0.69302949999999996 -0.22713700000000001 -0.41419149999999999 0.0031786599999999998 0.11733949999999999 -0.29694900000000002 0.13129550000000001 0.29833149999999997 0.1146585 -0.18628649999999997 -0.30719000000000002 -0.1033255 0.082272349999999994 -0.1569005 -0.331368 -0.113177 0.24354000000000001 0.13579049999999998 0.48374700000000004 -0.26375799999999999 0.3359415 0.22581049999999997 0.31137700000000001 -0.49793699999999996 -0.032968650000000002 0.0232763 0.34135799999999999 0.32727649999999997\u000adecision_type=2 2 2 2 2 2 2 2 2 2 2 2 2 2 2 2 2 2 2 2 2 2 2 2 2 2 2 2 2 2\u000aleft_child=1 4 6 7 19 10 24 8 -4 17 -3 12 13 18 29 20 27 -6 -5 25 -7 -19 -11 -9 -2 -1 -16 -10 -25 -8\u000aright_child=2 5 3 11 9 15 14 23 16 22 -12 -13 -14 -15 26 -17 -18 21 -20 -21 -22 -23 -24 28 -26 -27 -28 -29 -30 -31\u000aleaf_value=0.022690946509737527 -0.054969171300971412 0.022195884166071891 -0.050481599430369145 -0.041257778067443795 -0.056648957797099664 -0.013470295916364309 -0.031824964063044865 -0.064867204004596821 -7.9863112222138609e-05 -0.034010720358329326 -0.024076401763212393 -0.070770840422024472 -0.067626838265695252 -0.058230006156007069 0.046169263577477609 0.061449816753078312 -0.032191064494409387 -0.0089090321782803548 0.017233759755989685 0.031102469966300558 0.039405438604359341 -0.055269033382959742 -0.0014875131374395313 -0.052503397535298361 -0.0033115353005456014 -0.023324791021047495 -0.0037459921699309218 0.059913667476119453 -0.0084541047544536962 0.028467371612123163\u000aleaf_count=371 1330 1318 2200 896 5498 379 670 11404 387 1595 1255 265627 52469 6939 729 2049 794 901 425 637 984 580 1044 2810 309 1151 340 261 322 176\u000ainternal_value=0 -0.26902489974946142 -1.3677077607771877 -1.3797999377685348 -0.67682236262200646 0.51985926099438784 -0.30485953119785469 -1.1048309208555014 -0.65168770309907054 -0.83805269745362077 -0.0050046688870159922 -1.3955875133610376 -1.3097778853259554 -1.0455116363567747 0.17618435084071893 0.92935872015599064 -0.12055770308865529 -1.0037400328221089 -0.4385354569210374 0.016691466021995699 0.49058678629346719 -0.53286984462107934 -0.42137380336175684 -1.2225204032195942 -0.89829088831823767 -0.23943973385811465 0.60698814435136106 0.48487131584441301 -0.95581538788599885 -0.37822730508223801\u000ainternal_count=365850 17762 348088 344534 11777 5985 3554 18178 3642 9618 2573 326356 60729 8260 1915 3412 1442 6979 1321 2159 1363 1481 2639 14536 1639 1522 1069 648 3132 846\u000ashrinkage=0.05\u000a\u000a\u000aTree=11\u000anum_leaves=31\u000anum_cat=0\u000asplit_feature=81 118 20 60 3 16 49 35 110 81 118 60 14 77 60 60 32 44 100 100 56 16 20 20 45 80 60 55 100 38\u000asplit_gain=4600.8182749527041 1351.430594784711 587.49108730384614 579.0390105587104 278.86161648857774 248.82900805576628 221.85045629329011 174.38012314891932 157.09738786857753 148.57000296624028 129.25675356564716 108.53267877115428 103.19110123558357 96.294668060588037 111.9090331148783 94.170040368115338 90.177091044644612 78.41715186809472 75.747347581789882 75.68452751699806 69.905161299360785 61.231710953727543 58.57223968757603 57.256306865302577 55.033617534299083 59.222852250888081 58.785726837525658 53.620777527764758 53.447981292427819 53.04828559454802\u000athreshold=0.6568695 -0.44204949999999998 0.32481499999999996 0.25069949999999996 -0.64345600000000003 -0.29198000000000002 -0.248392 -0.08722415 -0.1575145 0.3984605 -0.38869799999999999 0.060901350000000007 -0.65633799999999998 -0.095721749999999994 0.34924200000000005 0.076507999999999993 -0.48682449999999999 -0.0086968600000000007 -0.1280395 -0.36702100000000004 0.44168849999999998 -0.0018865900000000001 -0.1813805 0.45884749999999996 -0.18814249999999999 0.035497050000000002 0.22384950000000003 -0.13798850000000001 -0.16773149999999998 -0.1117505\u000adecision_type=2 2 2 2 2 2 2 2 2 2 2 2 2 2 2 2 2 2 2 2 2 2 2 2 2 2 2 2 2 2\u000aleft_child=2 3 9 8 6 11 19 27 22 -1 15 -4 -7 -6 23 -11 -9 -10 -8 -3 -18 29 -2 -15 25 -12 -27 -5 -17 -14\u000aright_child=1 4 5 7 13 12 18 16 17 10 24 -13 21 14 -16 28 20 -19 -20 -21 -22 -23 -24 -25 -26 26 -28 -29 -30 -31\u000aleaf_value=-0.068753513286139226 -0.06398554179245998 -0.015386500530009879 -0.039521464369785597 -0.011581831525805775 -0.067652453166112708 -0.015809555856055601 -0.04680633835321088 0.05372615737098875 -0.01841102892171868 -0.057421898384036565 -0.062321317044249827 0.019010185183858549 -0.033807681637021955 -0.052602640204318034 0.01861014944477132 -0.040550205283478295 0.027548808997894338 0.026660548338953424 -0.013541526141582109 0.028936730032035292 -0.059499341962574483 -0.061597942082841931 -0.02554709171770584 -0.0064009054904708403 -0.066536897773322862 -0.050647824841032023 -0.010802010593968564 0.029374269848870871 0.0016984315362839908 -0.057521554221217068\u000aleaf_count=308270 532 754 558 944 3569 867 2671 2838 698 1480 3981 860 2416 3496 281 632 1007 920 992 833 105 4806 2252 312 14435 1688 565 497 700 1891\u000ainternal_value=0 -0.37481126184222496 -1.3445043673760713 0.19302040701118017 -0.82765072954567942 -0.87175133980981589 -0.46836899528354159 0.64662300909237225 -0.3544289922759965 -1.3620361495690017 -1.1952642915929037 -0.068820537882993513 -0.99401696249442262 -1.0931051491020347 -0.87280213171525722 -0.76624791997202646 0.87590602667990103 0.14582416922477429 -0.75232530364588557 0.16048792183349261 0.38298615124574864 -1.0632257792560251 -0.65164481091841964 -0.97156116034440398 -1.2560743094275177 -1.0862175112508947 -0.80723760752913531 0.050206793101900987 -0.36566153590438888 -0.88140808891536926\u000ainternal_count=365850 22701 343149 9793 12908 11398 5250 5391 4402 331751 23481 1418 9980 7658 4089 2812 3950 1618 3663 1587 1112 9113 2784 3808 20669 6234 2253 1441 1332 4307\u000ashrinkage=0.05\u000a\u000a\u000aTree=12\u000anum_leaves=31\u000anum_cat=0\u000asplit_feature=3 109 20 81 118 32 99 80 60 63 38 100 79 57 77 119 20 50 77 60 80 100 97 100 118 56 53 119 110 56\u000asplit_gain=4418.7478779525118 1160.4331746741259 1041.4810680069932 404.4255043137091 291.85803393063088 281.92339971932239 263.15827754847191 233.38685643096207 170.51868086433416 139.97821226341998 125.19502475756781 121.13777924727196 111.49649174765877 100.35882312115146 99.01300049262494 95.769050801488248 92.348476369894342 84.904110876335153 83.105552015017565 115.85571164328667 79.346001054203043 69.230174047434048 125.93835597873935 67.627086080410209 62.19718536912027 60.245788139522446 56.774088345463042 54.680291922023301 52.309926187431472 51.869240707508169\u000athreshold=-0.64345600000000003 0.46472849999999999 0.53373300000000001 0.48632000000000003 -0.37814500000000001 -0.41489549999999997 -0.36497100000000005 0.24913849999999998 0.072718349999999987 0.0105287 -0.35335949999999999 -0.15960150000000001 -0.14879049999999999 -0.26761800000000002 -0.26029449999999998 -0.52194049999999992 0.120062 0.12559999999999999 -0.073270399999999999 0.0452754 0.13749900000000001 0.4386525 0.26871800000000001 0.15130500000000002 -0.60889700000000002 -0.10202449999999999 -0.67722199999999999 -0.40721649999999998 0.24087700000000001 -0.12207000000000001\u000adecision_type=2 2 2 2 2 2 2 2 2 2 2 2 2 2 2 2 2 2 2 2 2 2 2 2 2 2 2 2 2 2\u000aleft_child=1 6 3 16 8 11 17 13 -5 -7 15 -3 -10 -4 -14 -8 -2 24 -6 -20 -21 -18 -23 26 -1 -9 -12 -22 -15 -16\u000aright_child=2 5 7 4 18 9 10 25 12 -11 23 -13 14 28 29 -17 21 -19 19 20 27 22 -24 -25 -26 -27 -28 -29 -30 -31\u000aleaf_value=0.011568898469952762 -0.067758802236274326 0.018248809073085563 0.0086242519109708017 -0.048818402412859743 -0.066043406117918244 -0.041722064605729345 0.0085796488174686592 0.045972134070024748 -0.046000945392423873 0.012104504080516392 -0.022915275364956973 0.052583359736725212 -0.052683710446933957 -0.05111178746135258 0.052892117630338721 -0.034762002908909018 -0.062361805939357286 0.028309203010753688 -0.06063139562788146 -0.045757834564614595 0.03059259510441888 -0.047754063687967918 0.12068423362505286 0.0017692698756386291 -0.029784931285630596 0.00077459384040290879 -0.055582092377728889 -0.025303750958418969 -0.002492801017486574 0.0059529237243037209\u000aleaf_count=585 285915 1957 545 2251 8454 821 747 691 604 1329 637 2456 260 1379 332 1959 37631 666 4979 1977 281 234 62 263 1064 548 5278 640 285 1020\u000ainternal_value=0 -0.24318598530652477 -1.3081026758447782 -1.3212916983168363 -1.0285787378566165 0.44048024638907501 -0.65453362321981334 -0.17888118923312687 -0.55657018446296602 -0.16557468840664685 -0.82191025832190756 0.74057800067932777 -0.15456848095261391 -0.59149330708157233 0.12763734178897632 -0.4539661705781638 -1.3412801889775496 -0.044251435611207063 -1.1685230000894546 -1.0084556089751222 -0.66700973485902315 -1.2385694627475448 -0.20258559308606719 -0.99020561836746379 -0.2950884956178349 0.52174176031164232 -1.0377380791349886 -0.15283664701635485 -0.85003284806571822 0.34989224305057459\u000ainternal_count=365850 17762 348088 344640 20798 6563 11199 3448 4467 2150 8884 4413 2216 2209 1612 2706 323842 2315 16331 7877 2898 37927 296 6178 1649 1239 5915 921 1664 1352\u000ashrinkage=0.05\u000a\u000a\u000aTree=13\u000anum_leaves=31\u000anum_cat=0\u000asplit_feature=81 118 60 21 21 118 86 16 109 35 60 52 16 35 109 100 44 45 119 50 50 49 45 100 97 62 56 36 109 119\u000asplit_gain=4277.4709422715678 1161.5669357155148 633.44715559662495 516.2818834392674 253.48064426891983 227.32266791498114 193.09899563907595 185.42546730363847 180.53462883973211 168.2848433954573 151.98368734314283 184.93891847199328 136.82473832862198 111.45978547626865 94.615421263376561 82.703307881804633 76.181144280576206 73.667468194384128 73.085110459301177 72.317010537843714 72.060183184871846 70.702610852614356 69.754543114452417 105.17947958165189 65.400559679340219 60.31838591347794 55.144710894694008 59.467893766866588 55.013945597527936 54.319392613843775\u000athreshold=0.6568695 -0.37814500000000001 0.23694999999999999 0.46500450000000004 0.17161900000000002 -0.35918349999999999 0.32822700000000005 -0.10358899999999999 0.28978250000000005 -0.08722415 0.1066285 0.11733949999999999 -0.13746249999999999 0.20596600000000001 0.50274449999999993 0.30397950000000001 0.043304599999999999 -0.16546650000000002 -0.49206150000000004 0.12559999999999999 -0.22818500000000003 -0.35541699999999998 -0.23150799999999999 -0.18188100000000001 0.0050451799999999998 -0.54476599999999997 0.131855 -0.144651 0.28191900000000003 -0.594163\u000adecision_type=2 2 2 2 2 2 2 2 2 2 2 2 2 2 2 2 2 2 2 2 2 2 2 2 2 2 2 2 2 2\u000aleft_child=3 2 12 5 22 7 28 10 19 -4 -1 -12 13 21 20 -13 -10 18 26 -6 -11 -2 23 -3 25 -8 27 -7 -5 -9\u000aright_child=1 4 9 6 8 17 24 29 16 14 11 15 -14 -15 -16 -17 -18 -19 -20 -21 -22 -23 -24 -25 -26 -27 -28 -29 -30 -31\u000aleaf_value=-0.053258821889024782 0.031225973293283277 -0.056791914292542371 0.0019279483425384096 -0.054193731566946159 -0.044503877421324299 -0.063667475449124863 0.044298844778982716 -0.027989539361163177 -0.030137261535495459 0.0034754505036559942 -0.039415627696683914 0.0081632881117999958 -0.038909109956863815 0.039222999217519885 0.052592177766024241 0.095045967175845056 0.017778144943659556 -0.066414352468723709 -0.061411716047251458 0.0060685144693670154 0.046952924457041113 -0.021392899878089303 -0.064204766339150357 -0.010912576782788399 0.005481492949825432 -0.041682453282584131 -0.04829598910193577 0.045102471889437765 -0.013641966899446224 -0.061275805677555521\u000aleaf_count=2885 301 1752 1664 3101 2763 92 98 607 509 976 1469 682 2352 481 2689 145 1166 287762 27229 340 671 2056 4154 827 1311 767 586 188 441 15786\u000ainternal_value=0 -0.34296642055871385 0.12280796074803385 -1.2895838745407939 -0.82807358932595698 -1.3016777593351834 -0.65064140417511007 -1.0805681156844473 -0.46514661185333545 0.58096037943244228 -0.72143225013504741 -0.31205370620597639 -0.40437113882328657 -0.10421816695432157 0.80206924649628342 0.47567942689678383 0.071695281250977322 -1.317356791185714 -1.2072832978228474 -0.77343979882510927 0.42206346292366348 -0.28965177190097924 -1.1054346073272883 -0.83189551608665513 -0.17501003240137489 -0.6293177531372347 -0.57657359500122385 0.21993431068360014 -0.97774825102535445 -1.199483069644685\u000ainternal_count=365850 22701 11190 343149 11511 337431 5718 21574 4778 6000 5181 2296 5190 2838 4336 827 1675 315857 28095 3103 1647 2357 6733 2579 2176 865 866 280 3542 16393\u000ashrinkage=0.05\u000a\u000a\u000aTree=14\u000anum_leaves=31\u000anum_cat=0\u000asplit_feature=81 60 20 20 20 16 60 35 40 81 20 126 109 21 109 52 60 86 10 109 31 38 32 124 20 100 63 126 45 119\u000asplit_gain=4121.7700701010472 1026.7995146329517 590.85926168119477 476.58670485970714 361.56068749783526 222.24475546612894 188.74999361300323 175.17848534190091 156.3192822093514 156.08295245369663 127.50062458303614 126.03543591117241 125.3520894562829 103.14159187024325 99.733486563669487 86.5055890503954 85.194148591775587 74.064683514951753 67.561331420896295 65.833455426914469 65.610268781776767 63.176081873618024 62.877927056445856 58.077711390905812 56.613079353672219 74.491337903911699 164.03431953034698 51.452163014760643 50.706489380264429 65.15041153052789\u000athreshold=0.6568695 0.27332600000000001 0.32481499999999996 -0.098734000000000002 0.53373300000000001 -0.13746249999999999 0.13441950000000003 0.037382749999999999 -0.37109000000000003 0.3984605 -0.10650749999999999 0.245338 0.34494750000000002 0.214308 0.14538449999999997 0.12793599999999999 -0.11878900000000001 0.19682300000000003 -0.18181600000000001 0.26711299999999999 -0.82024299999999994 -0.096734500000000001 -0.48682449999999999 -0.35907 0.076372250000000003 0.4386525 0.23446149999999999 -0.320017 -0.16030850000000002 -0.49206150000000004\u000adecision_type=2 2 2 2 2 2 2 2 2 2 2 2 2 2 2 2 2 2 2 2 2 2 2 2 2 2 2 2 2 2\u000aleft_child=2 4 9 8 10 6 -4 15 19 24 -2 27 -12 28 -15 -5 -14 -16 -18 -3 -7 -8 -9 -17 -1 -26 -27 -6 29 -11\u000aright_child=1 3 5 7 11 20 21 22 -10 13 12 -13 16 14 17 23 18 -19 -20 -21 -22 -23 -24 -25 25 26 -28 -29 -30 -31\u000aleaf_value=-0.065554155285102833 -0.060047971813918091 -0.056114957327801696 -0.038583984538402935 -0.026775331356657651 -0.029564466179031159 -0.019377026237666191 0.024679756334081992 0.049669826894688518 -0.048540630744513022 -0.011604459565548446 -0.044826410901854304 0.041650906320089366 -0.047465728832606711 -0.053276009471278057 -0.04034784430023234 0.0018283396099074087 0.016478177937306698 0.0079719712369261536 -0.025350608509182328 0.031424681573293756 -0.052931818457819281 -0.02228302773448455 0.020148154314743691 0.036503201345895527 -0.061609327022984162 -0.062395056383771103 0.10390949632451321 0.0026691451857874735 -0.062734049184450733 -0.053797128108056626\u000aleaf_count=261709 3740 118 2077 646 978 712 1022 2614 1651 471 5291 562 687 2465 820 1206 868 670 797 484 7137 450 1117 855 46231 234 96 1087 13401 5654\u000ainternal_value=0 -0.32974237746035995 -1.2649445867228015 0.23052886790162042 -0.69032251704044256 -0.77841902036525934 -0.34399637208270778 0.51139325291474902 -0.62207534763468819 -1.2836971917706423 -0.86390248635828204 -0.016745454441544214 -0.71005466534071404 -1.1060514383355073 -0.78090644531227482 0.12142863938177485 -0.31186441454494407 -0.34526263219865527 -0.063648979706997344 0.28685214243136642 -0.99126782649195422 0.21438642017846285 0.81146134031920336 0.32370060566950265 -1.2977871185878151 -1.2240896794664637 -0.18222540598139728 -0.25082558977375774 -1.1752758154622154 -1.0062538385493904\u000ainternal_count=365850 22701 343149 8691 14010 11398 3549 6438 2253 331751 11383 2627 7643 23481 3955 2707 2352 1490 1665 602 7849 1472 3731 2061 308270 46561 330 2065 19526 6125\u000ashrinkage=0.05\u000a\u000a\u000aTree=15\u000anum_leaves=31\u000anum_cat=0\u000asplit_feature=81 118 35 20 20 118 60 60 109 97 45 119 66 50 118 120 36 97 45 29 56 32 55 120 20 99 25 60 124 20\u000asplit_gain=4054.268046707919 1285.7882688273053 470.71645051045641 442.56287422178139 295.85740976425313 223.58150900378314 211.51017213855658 159.9271252498007 133.53027934615562 129.13625041693382 95.426318577170605 97.633718656896235 139.02638074630642 93.355977311758892 89.761786133897289 89.521104110574015 85.769650055100101 77.182132368378845 70.699313221610453 76.46018191806354 69.645547416886529 63.761059066159675 62.588920598406652 61.973011751922058 61.708270695243272 61.310862147364787 57.527642356128581 73.090323421435414 54.092559999035586 50.626537193202672\u000athreshold=0.58618199999999998 -0.44204949999999998 0.0141961 0.26040549999999996 0.16570299999999999 -0.56166300000000002 0.175321 0.27332600000000001 0.35834500000000002 0.052901400000000001 -0.16546650000000002 -0.25668049999999998 -0.129297 -0.19942000000000001 -0.076553650000000001 0.47921049999999998 0.33410850000000003 0.108144 -0.34425300000000003 0.059074100000000004 0.55329700000000004 -0.53861049999999999 -0.037426749999999995 0.45067750000000001 -0.314083 -0.38662399999999997 0.25598650000000001 0.076507999999999993 0.0090435100000000011 0.082113849999999988\u000adecision_type=2 2 2 2 2 2 2 2 2 2 2 2 2 2 2 2 2 2 2 2 2 2 2 2 2 2 2 2 2 2\u000aleft_child=3 2 7 10 15 9 25 21 13 -5 11 12 14 -4 17 -3 26 -1 19 -17 -10 29 -8 -13 -9 -6 -7 -28 -29 -2\u000aright_child=1 4 8 5 6 16 22 24 20 -11 -12 23 -14 -15 -16 18 -18 -19 -20 -21 -22 -23 -24 -25 -26 -27 27 28 -30 -31\u000aleaf_value=0.066692980008836347 -0.044421360480870621 -0.056406153484501599 -0.013309676913118202 -0.03266099177611325 -0.0055816844266342314 -0.059773731896839259 -0.0059081354290501688 -0.045772396035774807 0.047862428674174728 0.021844049697790968 -0.064078573084080562 -0.060999591360467634 -0.050426730789657905 0.031136838775846293 -0.055813828530057619 0.028873264171240021 -0.0087080214159796013 -0.028003876644826748 -0.047266331146391852 -0.032128864437250555 -0.01290941467313431 -0.03550208349621204 0.032851993876908292 -0.031630540575763193 0.016685119626335881 -0.041616326711160834 -0.053411869478692822 -0.014898494130325899 -0.047359048474131353 0.0099056191887698722\u000aleaf_count=291 267 7944 958 1327 621 6242 1428 184 3136 743 293364 24201 3266 1040 221 321 535 170 1793 691 214 2509 636 921 1680 3201 4712 1346 1200 688\u000ainternal_value=0 -0.38460310009791543 0.16812339447115338 -1.2488696750065045 -0.77554360059722749 -0.88781590774581409 -0.40018539411518517 -0.26350929874234091 0.61051271416355823 -0.24592813694824964 -1.2687079761149667 -1.142047553149999 -0.80887067517342581 0.19522304587023503 0.11175457962540014 -1.001693556142788 -0.99605287431622935 0.6540025279284658 -0.67613242870187507 -0.24442843920740021 0.8746296553591657 -0.53284872630721025 0.12448406885564282 -1.1963158728433958 0.21237297134039118 -0.70783081847214546 -1.0339487429558625 -0.89865298305779862 -0.59778417861220023 -0.081229531222108325\u000ainternal_count=365850 27311 10676 338539 16635 16105 5886 5328 5348 2070 322434 29070 3948 1998 682 10749 14035 461 2805 1012 3350 3464 2064 25122 1864 3822 13500 7258 2546 955\u000ashrinkage=0.05\u000a\u000a\u000aTree=16\u000anum_leaves=31\u000anum_cat=0\u000asplit_feature=81 118 60 20 3 118 109 44 97 110 106 98 45 119 66 100 93 16 118 60 60 50 15 86 62 16 109 100 25 62\u000asplit_gain=3930.4779096205748 1188.1365390657256 496.64085744784029 444.98199186123384 267.13219688116442 212.70504730206903 197.59273536829494 186.8749863412059 117.48076731903491 111.98849536473526 105.52119929374558 99.318479103464256 96.877448070343235 96.039013088227875 130.59929770506341 95.201580624312896 88.913923546730743 83.972582137312656 81.931327784598778 79.137958507636156 75.75658478695965 71.476664192482815 69.455551574418024 62.61583365547358 55.365808152025068 54.531012961411307 55.770778685244863 48.527046778754269 45.694117547312167 44.270965929347838\u000athreshold=0.58618199999999998 -0.40133850000000004 0.15155049999999998 0.26040549999999996 -0.42460149999999997 -0.56166300000000002 0.41196699999999997 0.30120849999999999 0.052901400000000001 0.022670950000000002 0.060107599999999997 -0.45478000000000002 -0.16546650000000002 -0.25668049999999998 -0.129297 -0.207452 -0.217553 -0.085940500000000003 -0.076553650000000001 0.29975249999999998 0.10922949999999999 -0.19572349999999999 0.1132885 0.49530249999999998 -0.43020499999999995 0.16603000000000001 0.34494750000000002 -0.15194950000000002 0.12698399999999999 0.064804349999999983\u000adecision_type=2 2 2 2 2 2 2 2 2 2 2 2 2 2 2 2 2 2 2 2 2 2 2 2 2 2 2 2 2 2\u000aleft_child=3 2 9 12 7 8 10 15 -5 25 21 -8 13 14 18 -3 -9 20 22 24 -7 -4 -1 -15 -17 26 -2 -10 -22 -29\u000aright_child=1 4 6 5 -6 17 11 16 27 -11 -12 -13 -14 23 -16 19 -18 -19 -20 -21 28 -23 -24 -25 -26 -27 -28 29 -30 -31\u000aleaf_value=0.073628449643215979 -0.034854913926851951 -0.046359344507458669 -0.0014657042222494445 -0.031346284585501948 -0.055349387153608813 -0.047273560527116565 0.0036459117498093734 -0.032388771423713505 -0.0059849919125630922 0.0084533211762435993 -0.023772477233541353 0.045917359718401135 -0.06305550051370111 -0.059493168391104183 -0.04913802786444426 0.016573431409389536 0.016808143157427059 -0.054735571408395481 -0.054595622966968682 0.015728861504694068 -0.04188485763877544 0.038563217440559669 -0.012031271269855242 -0.016614218734382593 -0.0370476164220283 -0.055195476914388503 -0.004501161011270436 0.074955894455439737 -0.0035622955372451651 0.0020487166098801216\u000aleaf_count=223 1748 3822 994 1327 7406 2881 733 589 368 1061 1009 3460 293364 24714 3266 244 1311 9544 221 532 595 891 238 408 1671 777 1063 227 1015 148\u000ainternal_value=0 -0.37032536917672193 0.12026617758230795 -1.2275394286662902 -0.78257785126172863 -0.86182024514175659 0.46712528850192581 -0.52462412561313165 -0.23495697338492991 -0.41350580880716437 0.059866938754972829 0.76552998579216214 -1.2478963458978267 -1.118404651981594 -0.78483836742079804 -0.71003988033487853 0.04215564979949657 -0.96948738952390845 0.10550131100530913 -0.38283745564284927 -0.72016287338314977 0.34656549207363707 0.61313921683892303 -1.1733239583052055 -0.59513446920860613 -0.59544697692500692 -0.46223991314164414 0.41385697718932341 -0.34624284486427404 0.93663418768164697\u000ainternal_count=365850 27311 11736 338539 15575 16105 7087 8169 2070 4649 2894 4193 322434 29070 3948 6269 1900 14035 682 2447 4491 1885 461 25122 1915 3588 2811 743 1610 375\u000ashrinkage=0.05\u000a\u000a\u000aTree=17\u000anum_leaves=31\u000anum_cat=0\u000asplit_feature=81 118 60 20 3 118 109 44 32 20 81 106 98 100 35 36 93 118 60 100 60 50 32 16 38 32 62 76 3 77\u000asplit_gain=3816.9485034250538 1096.2306075320212 451.57101929096336 448.23382975481218 257.26064663987358 202.12353769344099 181.3675338170064 172.43172559656904 109.3792396765522 105.57034752165498 100.88584946206538 95.689120095514085 91.876750147612313 89.113173475900794 84.261665446712783 84.062357236007301 80.717000186732108 74.353086264884496 98.887562468968099 80.297619070814378 72.337116000855545 65.83104712231912 62.386489837573663 60.105867481719088 61.125550119295212 56.047236175139915 50.901165321652996 50.527849263356785 50.398482186419201 58.436677585742821\u000athreshold=0.58618199999999998 -0.40133850000000004 0.15155049999999998 0.26040549999999996 -0.42460149999999997 -0.56166300000000002 0.41196699999999997 0.30120849999999999 -0.38479999999999998 0.16570299999999999 0.3984605 0.10399750000000001 -0.45478000000000002 -0.207452 0.1691435 0.33410850000000003 -0.22156100000000001 -0.23335650000000002 0.10922949999999999 -0.084706699999999996 0.29975249999999998 -0.19572349999999999 -0.56724400000000008 -0.0018865900000000001 -0.13973649999999999 -0.29326449999999998 -0.43020499999999995 -0.27833150000000001 -0.0078079999999999998 -0.1779415\u000adecision_type=2 2 2 2 2 2 2 2 2 2 2 2 2 2 2 2 2 2 2 2 2 2 2 2 2 2 2 2 2 2\u000aleft_child=3 2 9 10 7 8 11 13 -5 -2 -1 21 -8 -3 22 23 -9 18 -12 -20 26 -4 -11 24 27 -14 -15 -7 29 -21\u000aright_child=1 4 6 5 -6 15 12 16 -10 14 17 -13 25 20 -16 -17 -18 -19 19 28 -22 -23 -24 -25 -26 -27 -28 -29 -30 -31\u000aleaf_value=-0.061974859223850411 -0.042823500625722682 -0.04483170207444756 -0.0019437977697862711 0.019146863169639951 -0.054058541380392469 0.0012486609030209369 0.0034657751999779638 -0.031206267616903469 -0.03083373097155663 0.011325111674160785 -0.054218307326096539 -0.02564815148853325 0.049219452194173716 0.015679317967364038 0.024338506871159335 -0.0062536145633778698 0.015886480564381029 -0.057679857123597814 -0.039206719221118229 -0.03570660866139521 0.014913735408203408 0.035219480815491547 -0.027319641267397922 -0.056555875616570599 -0.051136022068618642 0.0075704908960133807 -0.035692482891483419 -0.036419901937161908 -0.054927981613504345 0.044337705404762243\u000aleaf_count=303383 1612 3822 1088 766 7406 540 733 586 1304 573 3219 871 3065 244 629 535 1314 13917 1210 153 532 935 1835 7247 3555 395 1671 2158 138 414\u000ainternal_value=0 -0.35657726156588648 0.1150547553073569 -1.2075513432809586 -0.75732103208738777 -0.83673977569769387 0.44693727882219847 -0.50398428521395588 -0.2246536593792344 -0.39562264373707823 -1.228474510254401 0.057009327115147522 0.73496500651583951 -0.68413267034255465 -0.17734653039291734 -0.94375488175971955 0.040051954346447718 -1.0611120103045686 -0.82320144191403777 -0.42290999529193374 -0.36685268829214279 0.30170984685713825 -0.35550179757927308 -0.98284835270585436 -0.8211362096236976 0.88357091157701906 -0.57199430975030763 -0.56824863862028996 0.1722877819744689 0.45343404369062507\u000ainternal_count=365850 27311 11736 338539 15575 16105 7087 8169 2070 4649 322434 2894 4193 6269 3037 14035 1900 19051 5134 1915 2447 2023 2408 13500 6253 3460 1915 2698 705 567\u000ashrinkage=0.05\u000a\u000a\u000aTree=18\u000anum_leaves=31\u000anum_cat=0\u000asplit_feature=81 118 60 20 20 109 16 60 60 20 106 56 3 79 126 32 118 60 66 100 52 35 14 79 2 118 49 109 32 35\u000asplit_gain=3712.8192583175551 1164.8664869376466 484.4095937573419 379.42770839695004 262.09847427216982 251.11608126967857 176.22918072805692 164.81550255778347 117.42635512430203 113.44175159445618 108.59226936737586 103.78201331584972 86.998411512954135 85.51580488819161 85.273927188616312 75.615713531049551 86.971924446326739 113.85273457181484 105.34803016682042 83.168084224465318 70.876460569500196 66.358884416320308 60.651487578634715 58.856489062458415 57.7571944484921 53.172259522149318 52.722446758015231 50.242922513937401 50.142237450384869 48.766568490807721\u000athreshold=0.53750849999999994 -0.37814500000000001 0.06736014999999998 0.26040549999999996 0.1490225 0.39158999999999999 -0.13746249999999999 0.13441950000000003 0.1041265 0.53373300000000001 0.048294199999999995 0.31158350000000001 -0.38299099999999997 0.077745099999999998 0.085770349999999995 -0.1033155 -0.17282750000000002 0.072718349999999987 -0.13484449999999998 0.21166699999999999 0.051334000000000005 0.072591700000000009 -0.57209850000000007 0.38929049999999998 0.086352099999999987 -0.38869799999999999 -0.2141275 0.39158999999999999 0.010626099999999999 -0.10526850000000001\u000adecision_type=2 2 2 2 2 2 2 2 2 2 2 2 2 2 2 2 2 2 2 2 2 2 2 2 2 2 2 2 2 2\u000aleft_child=3 2 9 15 12 10 8 -6 25 -2 21 -7 14 -9 -3 16 17 -1 19 -19 -10 -4 -8 -16 -25 -5 -11 -20 -23 -15\u000aright_child=1 4 5 6 7 11 22 13 20 26 -12 -13 -14 29 23 -17 -18 18 27 -21 -22 28 -24 24 -26 -27 -28 -29 -30 -31\u000aleaf_value=-0.058059262703930761 -0.038139226418341908 -0.048527677739433742 -0.0051706002062389114 -0.014620711697662533 -0.035855068685430855 0.041237779013754493 -0.02298381455654553 -0.020202789052317111 -0.029649750969030622 0.036866769496368239 -0.024270544384701692 0.00067138507587854339 -0.058145544200798642 -0.0072087352001808658 -0.029480055448934301 -0.061797383118319532 -0.059964289486394651 -0.019878280514723415 -0.047924450823598891 0.070232022548387868 0.017328996939643734 0.034835646577107374 -0.052401509038259589 0.071463605162373295 -0.01500575633264379 -0.051211788282345655 -0.012194697737171108 -0.012418657346842677 -0.047012746698768697 0.036883677776190851\u000aleaf_count=13655 2992 3374 1237 714 3787 4041 936 1138 613 286 1460 819 7157 443 1205 238453 58407 768 7198 160 984 1120 10441 145 218 1588 1117 582 87 725\u000ainternal_value=0 -0.39306118391414602 0.071230764377638631 -1.1942703449661625 -0.78128157187607206 0.35356774057208701 -0.83895233800106916 -0.42092849912387287 -0.43707391758826958 -0.51175862455643806 -0.034255595099693767 0.6801371851528013 -0.98793333917207804 0.012885219249658166 -0.7656584504595102 -1.2136631202826611 -1.1486777716367091 -1.0197852913572425 -0.80559078350829982 -0.061968578076252168 0.00050324085904019625 0.23130847822912545 -0.99282713758272678 -0.34325220820143615 0.39914102718027017 -0.77717638993862492 -0.041125777505620395 -0.90036581414443828 0.57879370008146014 0.40697202077755612\u000ainternal_count=365850 31351 13159 334499 18192 8764 15276 6093 3899 4395 3904 4860 12099 2306 4942 319223 80770 22363 8708 928 1597 2444 11377 1568 363 2302 1403 7780 1207 1168\u000ashrinkage=0.05\u000a\u000a\u000aTree=19\u000anum_leaves=31\u000anum_cat=0\u000asplit_feature=81 118 60 20 20 109 118 60 110 32 56 106 3 126 79 36 32 118 60 66 119 18 50 38 20 93 25 60 124 62\u000asplit_gain=3621.0011478259694 1078.4811336816397 441.47461876384352 384.50670439725218 251.42053684355028 233.73798742805479 181.94402820817186 152.2206361360831 105.07364956757917 101.32777125030105 100.67526876591916 100.6390884146012 86.876718623394936 80.50560750655643 77.294962423848503 75.279548518342835 71.120628634424065 85.683368278114358 118.39149409802394 134.45196391093202 101.37453880785893 106.09932820145814 66.732178513749531 59.22183016307374 58.029471185359739 53.754347294256831 53.419912531698628 65.171907922853961 50.400399940902105 49.243021508735637\u000athreshold=0.53750849999999994 -0.37814500000000001 0.057699799999999996 0.23671449999999999 0.1490225 0.39158999999999999 -0.56166300000000002 0.13441950000000003 0.32727649999999997 -0.51095800000000002 0.55329700000000004 0.0061003700000000008 -0.38299099999999997 0.085770349999999995 0.077745099999999998 0.33410850000000003 -0.087849199999999988 -0.17282750000000002 0.072718349999999987 -0.13484449999999998 -0.24142349999999999 0.22557249999999998 -0.20705999999999999 -0.42097600000000002 0.097542900000000002 -0.020572500000000001 0.251411 0.04641145 0.0090435100000000011 -0.325542\u000adecision_type=2 2 2 2 2 2 2 2 2 2 2 2 2 2 2 2 2 2 2 2 2 2 2 2 2 2 2 2 2 2\u000aleft_child=3 2 8 16 12 11 9 29 24 -5 25 22 13 -3 -9 26 17 18 -1 20 21 -20 -4 -15 -2 -7 -8 -28 -29 -6\u000aright_child=1 4 5 6 7 10 15 14 -10 -11 -12 -13 -14 23 -16 -17 -18 -19 19 -21 -22 -23 -24 -25 -26 -27 27 28 -30 -31\u000aleaf_value=-0.057604135144117732 -0.049251391689694973 -0.047116048165801235 -0.0061194074710122443 0.02673899777731761 -0.014222592045604715 0.022005786372126135 -0.055855155881381617 -0.019295551722251527 0.030871895564725051 -0.027185896113981624 -0.016010849102347912 -0.021244227383839569 -0.057097507864747821 0.013580674671972407 0.019290907398535232 -0.0067858569939174317 -0.061103236744231681 -0.059258852818204713 0.086707767406205338 -0.044994130157723911 -0.034783154713107341 -0.027017969435535846 0.029242535219862344 -0.031896387413540957 -0.021240136130354997 0.04626040958889216 -0.05064742372623017 -0.014937721647902564 -0.044290117037937546 -0.042638197968258046\u000aleaf_count=14152 1398 3374 1096 517 1011 1605 7537 1138 320 1469 412 1694 7157 502 1168 521 228176 65195 250 7832 538 187 1201 1066 2548 2885 4936 1618 1571 2776\u000ainternal_value=0 -0.37895958192562806 0.068177782242879417 -1.1766783615445819 -0.75745287160655417 0.33227219912482814 -0.84405602988135953 -0.40387599846107292 -0.50403919556320376 -0.235026853603826 0.64878869771190739 -0.037176754981618675 -0.96349135269808295 -0.74023560863416071 0.0122083862905556 -0.93563797892352585 -1.1984307129899825 -1.138102156242454 -1.0084677626534524 -0.78807162446651224 0.026784214213406266 0.81484543544072707 0.24426566029789737 -0.32898355112504007 -0.60560006675404598 0.74529724344895509 -0.96882582754662827 -0.83650375627784579 -0.57977910731042159 -0.69179136087120463\u000ainternal_count=365850 31351 13159 334499 18192 8893 18169 6093 4266 1986 4902 3991 12099 4942 2306 16183 316330 88154 22959 8807 975 437 2297 1568 3946 4490 15662 8125 3189 3787\u000ashrinkage=0.05\u000a\u000a\u000a\u000afeature importances:\u000aColumn_60=64\u000aColumn_20=54\u000aColumn_118=48\u000aColumn_109=35\u000aColumn_100=30\u000aColumn_81=29\u000aColumn_35=25\u000aColumn_3=24\u000aColumn_16=19\u000aColumn_86=16\u000aColumn_32=16\u000aColumn_119=14\u000aColumn_38=14\u000aColumn_56=13\u000aColumn_45=13\u000aColumn_110=12\u000aColumn_97=9\u000aColumn_77=9\u000aColumn_49=9\u000aColumn_50=9\u000aColumn_80=8\u000aColumn_44=8\u000aColumn_79=7\u000aColumn_66=7\u000aColumn_52=6\u000aColumn_93=6\u000aColumn_106=6\u000aColumn_21=6\u000aColumn_120=6\u000aColumn_99=5\u000aColumn_126=5\u000aColumn_68=5\u000aColumn_62=5\u000aColumn_63=5\u000aColumn_25=5\u000aColumn_36=5\u000aColumn_124=3\u000aColumn_55=3\u000aColumn_83=3\u000aColumn_18=3\u000aColumn_71=2\u000aColumn_123=2\u000aColumn_13=2\u000aColumn_14=2\u000aColumn_15=2\u000aColumn_29=2\u000aColumn_31=2\u000aColumn_98=2\u000aColumn_57=2\u000aColumn_0=2\u000aColumn_95=1\u000aColumn_40=1\u000aColumn_103=1\u000aColumn_89=1\u000aColumn_51=1\u000aColumn_53=1\u000aColumn_112=1\u000aColumn_78=1\u000aColumn_10=1\u000aColumn_76=1\u000aColumn_2=1\u000a
p39
sS'_Booster__higher_better_inner_eval'
p40
(lp41
I00
aI01
asS'_Booster__num_inner_eval'
p42
I2
sS'_Booster__train_data_name'
p43
S'training'
p44
sS'_Booster__num_dataset'
p45
I0
sS'pandas_categorical'
p46
NsS'_Booster__need_reload_eval_info'
p47
I00
sS'_Booster__num_class'
p48
I1
sS'_Booster__name_inner_eval'
p49
(lp50
g34
ag23
asb.